; ModuleID = '57/103.c'
source_filename = "57/103.c"
target datalayout = "e-m:e-p270:32:32-p271:32:32-p272:64:64-i64:64-f80:128-n8:16:32:64-S128"
target triple = "x86_64-pc-linux-gnu"

@.str = private unnamed_addr constant [3 x i8] c"%d\00", align 1
@.str.1 = private unnamed_addr constant [4 x i8] c"%s\0A\00", align 1

; Function Attrs: noinline nounwind uwtable
define dso_local void @main() #0 {
  %1 = alloca [30 x [30 x i8]], align 16
  %2 = alloca i32, align 4
  %3 = alloca i32, align 4
  %4 = alloca i32, align 4
  %5 = call i32 (i8*, ...) @__isoc99_scanf(i8* getelementptr inbounds ([3 x i8], [3 x i8]* @.str, i64 0, i64 0), i32* %2)
  store i32 0, i32* %3, align 4
  br label %6

6:                                                ; preds = %131, %0
  %7 = load i32, i32* %3, align 4
  %8 = load i32, i32* %2, align 4
  %9 = add nsw i32 %8, 1
  %10 = icmp slt i32 %7, %9
  br i1 %10, label %11, label %134

11:                                               ; preds = %6
  %12 = load i32, i32* %3, align 4
  %13 = sext i32 %12 to i64
  %14 = getelementptr inbounds [30 x [30 x i8]], [30 x [30 x i8]]* %1, i64 0, i64 %13
  %15 = getelementptr inbounds [30 x i8], [30 x i8]* %14, i64 0, i64 0
  %16 = call i32 (i8*, ...) bitcast (i32 (...)* @gets to i32 (i8*, ...)*)(i8* %15)
  %17 = load i32, i32* %3, align 4
  %18 = sext i32 %17 to i64
  %19 = getelementptr inbounds [30 x [30 x i8]], [30 x [30 x i8]]* %1, i64 0, i64 %18
  %20 = getelementptr inbounds [30 x i8], [30 x i8]* %19, i64 0, i64 0
  %21 = call i64 @strlen(i8* %20) #3
  %22 = trunc i64 %21 to i32
  store i32 %22, i32* %4, align 4
  %23 = load i32, i32* %3, align 4
  %24 = sext i32 %23 to i64
  %25 = getelementptr inbounds [30 x [30 x i8]], [30 x [30 x i8]]* %1, i64 0, i64 %24
  %26 = load i32, i32* %4, align 4
  %27 = sub nsw i32 %26, 2
  %28 = sext i32 %27 to i64
  %29 = getelementptr inbounds [30 x i8], [30 x i8]* %25, i64 0, i64 %28
  %30 = load i8, i8* %29, align 1
  %31 = sext i8 %30 to i32
  %32 = icmp eq i32 %31, 101
  br i1 %32, label %33, label %52

33:                                               ; preds = %11
  %34 = load i32, i32* %3, align 4
  %35 = sext i32 %34 to i64
  %36 = getelementptr inbounds [30 x [30 x i8]], [30 x [30 x i8]]* %1, i64 0, i64 %35
  %37 = load i32, i32* %4, align 4
  %38 = sub nsw i32 %37, 1
  %39 = sext i32 %38 to i64
  %40 = getelementptr inbounds [30 x i8], [30 x i8]* %36, i64 0, i64 %39
  %41 = load i8, i8* %40, align 1
  %42 = sext i8 %41 to i32
  %43 = icmp eq i32 %42, 114
  br i1 %43, label %44, label %52

44:                                               ; preds = %33
  %45 = load i32, i32* %3, align 4
  %46 = sext i32 %45 to i64
  %47 = getelementptr inbounds [30 x [30 x i8]], [30 x [30 x i8]]* %1, i64 0, i64 %46
  %48 = load i32, i32* %4, align 4
  %49 = sub nsw i32 %48, 2
  %50 = sext i32 %49 to i64
  %51 = getelementptr inbounds [30 x i8], [30 x i8]* %47, i64 0, i64 %50
  store i8 0, i8* %51, align 1
  br label %125

52:                                               ; preds = %33, %11
  %53 = load i32, i32* %3, align 4
  %54 = sext i32 %53 to i64
  %55 = getelementptr inbounds [30 x [30 x i8]], [30 x [30 x i8]]* %1, i64 0, i64 %54
  %56 = load i32, i32* %4, align 4
  %57 = sub nsw i32 %56, 2
  %58 = sext i32 %57 to i64
  %59 = getelementptr inbounds [30 x i8], [30 x i8]* %55, i64 0, i64 %58
  %60 = load i8, i8* %59, align 1
  %61 = sext i8 %60 to i32
  %62 = icmp eq i32 %61, 108
  br i1 %62, label %63, label %82

63:                                               ; preds = %52
  %64 = load i32, i32* %3, align 4
  %65 = sext i32 %64 to i64
  %66 = getelementptr inbounds [30 x [30 x i8]], [30 x [30 x i8]]* %1, i64 0, i64 %65
  %67 = load i32, i32* %4, align 4
  %68 = sub nsw i32 %67, 1
  %69 = sext i32 %68 to i64
  %70 = getelementptr inbounds [30 x i8], [30 x i8]* %66, i64 0, i64 %69
  %71 = load i8, i8* %70, align 1
  %72 = sext i8 %71 to i32
  %73 = icmp eq i32 %72, 121
  br i1 %73, label %74, label %82

74:                                               ; preds = %63
  %75 = load i32, i32* %3, align 4
  %76 = sext i32 %75 to i64
  %77 = getelementptr inbounds [30 x [30 x i8]], [30 x [30 x i8]]* %1, i64 0, i64 %76
  %78 = load i32, i32* %4, align 4
  %79 = sub nsw i32 %78, 2
  %80 = sext i32 %79 to i64
  %81 = getelementptr inbounds [30 x i8], [30 x i8]* %77, i64 0, i64 %80
  store i8 0, i8* %81, align 1
  br label %124

82:                                               ; preds = %63, %52
  %83 = load i32, i32* %3, align 4
  %84 = sext i32 %83 to i64
  %85 = getelementptr inbounds [30 x [30 x i8]], [30 x [30 x i8]]* %1, i64 0, i64 %84
  %86 = load i32, i32* %4, align 4
  %87 = sub nsw i32 %86, 3
  %88 = sext i32 %87 to i64
  %89 = getelementptr inbounds [30 x i8], [30 x i8]* %85, i64 0, i64 %88
  %90 = load i8, i8* %89, align 1
  %91 = sext i8 %90 to i32
  %92 = icmp eq i32 %91, 105
  br i1 %92, label %93, label %123

93:                                               ; preds = %82
  %94 = load i32, i32* %3, align 4
  %95 = sext i32 %94 to i64
  %96 = getelementptr inbounds [30 x [30 x i8]], [30 x [30 x i8]]* %1, i64 0, i64 %95
  %97 = load i32, i32* %4, align 4
  %98 = sub nsw i32 %97, 2
  %99 = sext i32 %98 to i64
  %100 = getelementptr inbounds [30 x i8], [30 x i8]* %96, i64 0, i64 %99
  %101 = load i8, i8* %100, align 1
  %102 = sext i8 %101 to i32
  %103 = icmp eq i32 %102, 110
  br i1 %103, label %104, label %123

104:                                              ; preds = %93
  %105 = load i32, i32* %3, align 4
  %106 = sext i32 %105 to i64
  %107 = getelementptr inbounds [30 x [30 x i8]], [30 x [30 x i8]]* %1, i64 0, i64 %106
  %108 = load i32, i32* %4, align 4
  %109 = sub nsw i32 %108, 1
  %110 = sext i32 %109 to i64
  %111 = getelementptr inbounds [30 x i8], [30 x i8]* %107, i64 0, i64 %110
  %112 = load i8, i8* %111, align 1
  %113 = sext i8 %112 to i32
  %114 = icmp eq i32 %113, 103
  br i1 %114, label %115, label %123

115:                                              ; preds = %104
  %116 = load i32, i32* %3, align 4
  %117 = sext i32 %116 to i64
  %118 = getelementptr inbounds [30 x [30 x i8]], [30 x [30 x i8]]* %1, i64 0, i64 %117
  %119 = load i32, i32* %4, align 4
  %120 = sub nsw i32 %119, 3
  %121 = sext i32 %120 to i64
  %122 = getelementptr inbounds [30 x i8], [30 x i8]* %118, i64 0, i64 %121
  store i8 0, i8* %122, align 1
  br label %123

123:                                              ; preds = %115, %104, %93, %82
  br label %124

124:                                              ; preds = %123, %74
  br label %125

125:                                              ; preds = %124, %44
  %126 = load i32, i32* %3, align 4
  %127 = sext i32 %126 to i64
  %128 = getelementptr inbounds [30 x [30 x i8]], [30 x [30 x i8]]* %1, i64 0, i64 %127
  %129 = getelementptr inbounds [30 x i8], [30 x i8]* %128, i64 0, i64 0
  %130 = call i32 (i8*, ...) @printf(i8* getelementptr inbounds ([4 x i8], [4 x i8]* @.str.1, i64 0, i64 0), i8* %129)
  br label %131

131:                                              ; preds = %125
  %132 = load i32, i32* %3, align 4
  %133 = add nsw i32 %132, 1
  store i32 %133, i32* %3, align 4
  br label %6

134:                                              ; preds = %6
  ret void
}

declare dso_local i32 @__isoc99_scanf(i8*, ...) #1

declare dso_local i32 @gets(...) #1

; Function Attrs: nounwind readonly
declare dso_local i64 @strlen(i8*) #2

declare dso_local i32 @printf(i8*, ...) #1


!llvm.module.flags = !{!0}
!llvm.ident = !{!1}

!0 = !{i32 1, !"wchar_size", i32 4}
!1 = !{!"clang version 10.0.0-4ubuntu1 "}
